; Function Attrs: mustprogress nounwind uwtable
define hidden void @_ZN4cvc58internal10IntBlasterD2Ev(ptr noundef nonnull align 8 dereferenceable(468) %this) unnamed_addr #4 align 2 personality ptr @__gxx_personality_v0 {
entry:
  store ptr getelementptr inbounds ({ [4 x ptr] }, ptr @_ZTVN4cvc58internal10IntBlasterE, i64 0, i32 0, i64 2), ptr %this, align 8
  %d_iandUtils = getelementptr inbounds i8, ptr %this, i64 376
  tail call void @_ZN4cvc58internal6theory5arith2nl9IAndUtilsD2Ev(ptr noundef nonnull align 8 dereferenceable(72) %d_iandUtils) #21
  %d_one = getelementptr inbounds i8, ptr %this, i64 368
  %0 = load ptr, ptr %d_one, align 8
  %bf.load.i.i = load i64, ptr %0, align 8
  %1 = and i64 %bf.load.i.i, 1152920405095219200
  %cmp.not.i.i = icmp eq i64 %1, 1152920405095219200
  br i1 %cmp.not.i.i, label %_ZN4cvc58internal12NodeTemplateILb1EED2Ev.exit, label %if.then.i.i

if.then.i.i:                                      ; preds = %entry
  %bf.value.i.i = add i64 %bf.load.i.i, 1152920405095219200
  %bf.shl.i.i = and i64 %bf.value.i.i, 1152920405095219200
  %bf.clear7.i.i = and i64 %bf.load.i.i, -1152920405095219201
  %bf.set.i.i = or disjoint i64 %bf.shl.i.i, %bf.clear7.i.i
  store i64 %bf.set.i.i, ptr %0, align 8
  %cmp12.i.i = icmp eq i64 %bf.shl.i.i, 0
  br i1 %cmp12.i.i, label %if.then13.i.i, label %_ZN4cvc58internal12NodeTemplateILb1EED2Ev.exit

if.then13.i.i:                                    ; preds = %if.then.i.i
  invoke void @_ZN4cvc58internal4expr9NodeValue15markForDeletionEv(ptr noundef nonnull align 8 dereferenceable(16) %0)
          to label %_ZN4cvc58internal12NodeTemplateILb1EED2Ev.exit unwind label %terminate.lpad.i

terminate.lpad.i:                                 ; preds = %if.then13.i.i
  %2 = landingpad { ptr, i32 }
          catch ptr null
  %3 = extractvalue { ptr, i32 } %2, 0
  tail call void @__clang_call_terminate(ptr %3) #22
  unreachable

_ZN4cvc58internal12NodeTemplateILb1EED2Ev.exit:   ; preds = %entry, %if.then.i.i, %if.then13.i.i
  %d_zero = getelementptr inbounds i8, ptr %this, i64 360
  %4 = load ptr, ptr %d_zero, align 8
  %bf.load.i.i1 = load i64, ptr %4, align 8
  %5 = and i64 %bf.load.i.i1, 1152920405095219200
  %cmp.not.i.i2 = icmp eq i64 %5, 1152920405095219200
  br i1 %cmp.not.i.i2, label %_ZN4cvc58internal12NodeTemplateILb1EED2Ev.exit11, label %if.then.i.i3

if.then.i.i3:                                     ; preds = %_ZN4cvc58internal12NodeTemplateILb1EED2Ev.exit
  %bf.value.i.i4 = add i64 %bf.load.i.i1, 1152920405095219200
  %bf.shl.i.i5 = and i64 %bf.value.i.i4, 1152920405095219200
  %bf.clear7.i.i6 = and i64 %bf.load.i.i1, -1152920405095219201
  %bf.set.i.i7 = or disjoint i64 %bf.shl.i.i5, %bf.clear7.i.i6
  store i64 %bf.set.i.i7, ptr %4, align 8
  %cmp12.i.i8 = icmp eq i64 %bf.shl.i.i5, 0
  br i1 %cmp12.i.i8, label %if.then13.i.i9, label %_ZN4cvc58internal12NodeTemplateILb1EED2Ev.exit11

if.then13.i.i9:                                   ; preds = %if.then.i.i3
  invoke void @_ZN4cvc58internal4expr9NodeValue15markForDeletionEv(ptr noundef nonnull align 8 dereferenceable(16) %4)
          to label %_ZN4cvc58internal12NodeTemplateILb1EED2Ev.exit11 unwind label %terminate.lpad.i10

terminate.lpad.i10:                               ; preds = %if.then13.i.i9
  %6 = landingpad { ptr, i32 }
          catch ptr null
  %7 = extractvalue { ptr, i32 } %6, 0
  tail call void @__clang_call_terminate(ptr %7) #22
  unreachable

_ZN4cvc58internal12NodeTemplateILb1EED2Ev.exit11: ; preds = %_ZN4cvc58internal12NodeTemplateILb1EED2Ev.exit, %if.then.i.i3, %if.then13.i.i9
  %d_bitwiseAssertions = getelementptr inbounds i8, ptr %this, i64 304
  store ptr getelementptr inbounds ({ [6 x ptr] }, ptr @_ZTVN4cvc57context15CDInsertHashMapINS_8internal12NodeTemplateILb1EEEbSt4hashIS4_EEE, i64 0, i32 0, i64 2), ptr %d_bitwiseAssertions, align 8
  invoke void @_ZN4cvc57context10ContextObj7destroyEv(ptr noundef nonnull align 8 dereferenceable(40) %d_bitwiseAssertions)
          to label %invoke.cont.i.i unwind label %terminate.lpad.i.i

invoke.cont.i.i:                                  ; preds = %_ZN4cvc58internal12NodeTemplateILb1EED2Ev.exit11
  %d_insertMap.i.i = getelementptr inbounds i8, ptr %this, i64 344
  %8 = load ptr, ptr %d_insertMap.i.i, align 8
  %isnull.i.i = icmp eq ptr %8, null
  br i1 %isnull.i.i, label %_ZN4cvc57context9CDHashSetINS_8internal12NodeTemplateILb1EEESt4hashIS4_EED2Ev.exit, label %delete.notnull.i.i

delete.notnull.i.i:                               ; preds = %invoke.cont.i.i
  tail call void @_ZN4cvc57context13InsertHashMapINS_8internal12NodeTemplateILb1EEEbSt4hashIS4_EED2Ev(ptr noundef nonnull align 8 dereferenceable(136) %8) #21
  tail call void @_ZdlPv(ptr noundef nonnull %8) #20
  br label %_ZN4cvc57context9CDHashSetINS_8internal12NodeTemplateILb1EEESt4hashIS4_EED2Ev.exit

terminate.lpad.i.i:                               ; preds = %_ZN4cvc58internal12NodeTemplateILb1EED2Ev.exit11
  %9 = landingpad { ptr, i32 }
          catch ptr null
  %10 = extractvalue { ptr, i32 } %9, 0
  tail call void @__clang_call_terminate(ptr %10) #22
  unreachable

_ZN4cvc57context9CDHashSetINS_8internal12NodeTemplateILb1EEESt4hashIS4_EED2Ev.exit: ; preds = %invoke.cont.i.i, %delete.notnull.i.i
  %d_rangeAssertions = getelementptr inbounds i8, ptr %this, i64 248
  store ptr getelementptr inbounds ({ [6 x ptr] }, ptr @_ZTVN4cvc57context15CDInsertHashMapINS_8internal12NodeTemplateILb1EEEbSt4hashIS4_EEE, i64 0, i32 0, i64 2), ptr %d_rangeAssertions, align 8
  invoke void @_ZN4cvc57context10ContextObj7destroyEv(ptr noundef nonnull align 8 dereferenceable(40) %d_rangeAssertions)
          to label %invoke.cont.i.i13 unwind label %terminate.lpad.i.i12

invoke.cont.i.i13:                                ; preds = %_ZN4cvc57context9CDHashSetINS_8internal12NodeTemplateILb1EEESt4hashIS4_EED2Ev.exit
  %d_insertMap.i.i14 = getelementptr inbounds i8, ptr %this, i64 288
  %11 = load ptr, ptr %d_insertMap.i.i14, align 8
  %isnull.i.i15 = icmp eq ptr %11, null
  br i1 %isnull.i.i15, label %_ZN4cvc57context9CDHashSetINS_8internal12NodeTemplateILb1EEESt4hashIS4_EED2Ev.exit17, label %delete.notnull.i.i16

delete.notnull.i.i16:                             ; preds = %invoke.cont.i.i13
  tail call void @_ZN4cvc57context13InsertHashMapINS_8internal12NodeTemplateILb1EEEbSt4hashIS4_EED2Ev(ptr noundef nonnull align 8 dereferenceable(136) %11) #21
  tail call void @_ZdlPv(ptr noundef nonnull %11) #20
  br label %_ZN4cvc57context9CDHashSetINS_8internal12NodeTemplateILb1EEESt4hashIS4_EED2Ev.exit17

terminate.lpad.i.i12:                             ; preds = %_ZN4cvc57context9CDHashSetINS_8internal12NodeTemplateILb1EEESt4hashIS4_EED2Ev.exit
  %12 = landingpad { ptr, i32 }
          catch ptr null
  %13 = extractvalue { ptr, i32 } %12, 0
  tail call void @__clang_call_terminate(ptr %13) #22
  unreachable

_ZN4cvc57context9CDHashSetINS_8internal12NodeTemplateILb1EEESt4hashIS4_EED2Ev.exit17: ; preds = %invoke.cont.i.i13, %delete.notnull.i.i16
  %d_intblastCache = getelementptr inbounds i8, ptr %this, i64 128
  tail call void @_ZN4cvc57context9CDHashMapINS_8internal12NodeTemplateILb1EEES4_St4hashIS4_EED2Ev(ptr noundef nonnull align 8 dereferenceable(112) %d_intblastCache) #21
  %d_binarizeCache = getelementptr inbounds i8, ptr %this, i64 16
  tail call void @_ZN4cvc57context9CDHashMapINS_8internal12NodeTemplateILb1EEES4_St4hashIS4_EED2Ev(ptr noundef nonnull align 8 dereferenceable(112) %d_binarizeCache) #21
  ret void
}